; Function Attrs: nounwind uwtable
define nonnull ptr @l___private_Std_Time_DateTime_PlainDateTime_0__Std_Time_decEqPlainDateTime____x40_Std_Time_DateTime_PlainDateTime___hyg_269____boxed(ptr noundef %0, ptr noundef %1) local_unnamed_addr #1 {
  %3 = getelementptr inbounds nuw i8, ptr %0, i64 8
  %4 = load ptr, ptr %3, align 8, !tbaa !5
  %5 = getelementptr inbounds nuw i8, ptr %0, i64 16
  %6 = load ptr, ptr %5, align 8, !tbaa !5
  %7 = getelementptr inbounds nuw i8, ptr %1, i64 8
  %8 = load ptr, ptr %7, align 8, !tbaa !5
  %9 = getelementptr inbounds nuw i8, ptr %1, i64 16
  %10 = load ptr, ptr %9, align 8, !tbaa !5
  %11 = tail call zeroext i8 @l___private_Std_Time_Date_PlainDate_0__Std_Time_decEqPlainDate____x40_Std_Time_Date_PlainDate___hyg_428_(ptr noundef %4, ptr noundef %8) #5
  %12 = icmp eq i8 %11, 0
  br i1 %12, label %l___private_Std_Time_DateTime_PlainDateTime_0__Std_Time_decEqPlainDateTime____x40_Std_Time_DateTime_PlainDateTime___hyg_269_.exit, label %13

13:                                               ; preds = %2
  %14 = tail call zeroext i8 @l___private_Std_Time_Time_PlainTime_0__Std_Time_decEqPlainTime____x40_Std_Time_Time_PlainTime___hyg_501_(ptr noundef %6, ptr noundef %10) #5
  %15 = zext i8 %14 to i64
  %16 = shl nuw nsw i64 %15, 1
  %17 = or disjoint i64 %16, 1
  br label %l___private_Std_Time_DateTime_PlainDateTime_0__Std_Time_decEqPlainDateTime____x40_Std_Time_DateTime_PlainDateTime___hyg_269_.exit

l___private_Std_Time_DateTime_PlainDateTime_0__Std_Time_decEqPlainDateTime____x40_Std_Time_DateTime_PlainDateTime___hyg_269_.exit: ; preds = %2, %13
  %.0.i = phi i64 [ %17, %13 ], [ 1, %2 ]
  %18 = ptrtoint ptr %1 to i64
  %19 = and i64 %18, 1
  %.not = icmp eq i64 %19, 0
  br i1 %.not, label %20, label %lean_dec.exit

20:                                               ; preds = %l___private_Std_Time_DateTime_PlainDateTime_0__Std_Time_decEqPlainDateTime____x40_Std_Time_DateTime_PlainDateTime___hyg_269_.exit
  %21 = load i32, ptr %1, align 4, !tbaa !9
  %22 = icmp sgt i32 %21, 1
  br i1 %22, label %23, label %25, !prof !12

23:                                               ; preds = %20
  %24 = add nsw i32 %21, -1
  store i32 %24, ptr %1, align 4, !tbaa !9
  br label %lean_dec.exit

25:                                               ; preds = %20
  %.not.i6 = icmp eq i32 %21, 0
  br i1 %.not.i6, label %lean_dec.exit, label %26

26:                                               ; preds = %25
  tail call void @lean_dec_ref_cold(ptr noundef nonnull %1) #5
  br label %lean_dec.exit

lean_dec.exit:                                    ; preds = %26, %25, %23, %l___private_Std_Time_DateTime_PlainDateTime_0__Std_Time_decEqPlainDateTime____x40_Std_Time_DateTime_PlainDateTime___hyg_269_.exit
  %27 = ptrtoint ptr %0 to i64
  %28 = and i64 %27, 1
  %.not8 = icmp eq i64 %28, 0
  br i1 %.not8, label %29, label %lean_dec.exit5

29:                                               ; preds = %lean_dec.exit
  %30 = load i32, ptr %0, align 4, !tbaa !9
  %31 = icmp sgt i32 %30, 1
  br i1 %31, label %32, label %34, !prof !12

32:                                               ; preds = %29
  %33 = add nsw i32 %30, -1
  store i32 %33, ptr %0, align 4, !tbaa !9
  br label %lean_dec.exit5

34:                                               ; preds = %29
  %.not.i = icmp eq i32 %30, 0
  br i1 %.not.i, label %lean_dec.exit5, label %35

35:                                               ; preds = %34
  tail call void @lean_dec_ref_cold(ptr noundef nonnull %0) #5
  br label %lean_dec.exit5

lean_dec.exit5:                                   ; preds = %35, %34, %32, %lean_dec.exit
  %36 = inttoptr i64 %.0.i to ptr
  ret ptr %36
}